; ModuleID = 'source-C-CXX/22/793.c'
source_filename = "source-C-CXX/22/793.c"
target datalayout = "e-m:e-p270:32:32-p271:32:32-p272:64:64-i64:64-f80:128-n8:16:32:64-S128"
target triple = "x86_64-pc-linux-gnu"

@.str = private unnamed_addr constant [4 x i8] c"%s \00", align 1
@.str.1 = private unnamed_addr constant [3 x i8] c"%s\00", align 1

; Function Attrs: nounwind sspstrong uwtable
define dso_local void @main() local_unnamed_addr #0 {
  %1 = alloca [100 x [100 x i8]], align 16
  %2 = getelementptr inbounds [100 x [100 x i8]], [100 x [100 x i8]]* %1, i64 0, i64 0, i64 0
  %3 = alloca [100 x i8], align 16
  %4 = getelementptr inbounds [100 x [100 x i8]], [100 x [100 x i8]]* %1, i64 0, i64 0, i64 0
  call void @llvm.lifetime.start.p0i8(i64 10000, i8* nonnull %4) #5
  %5 = getelementptr inbounds [100 x i8], [100 x i8]* %3, i64 0, i64 0
  call void @llvm.lifetime.start.p0i8(i64 100, i8* nonnull %5) #5
  %6 = call i32 (i8*, ...) bitcast (i32 (...)* @gets to i32 (i8*, ...)*)(i8* nonnull %5) #5
  call void @llvm.memset.p0i8.i64(i8* noundef nonnull align 16 dereferenceable(10000) %2, i8 0, i64 10000, i1 false)
  br label %7

7:                                                ; preds = %0, %26
  %8 = phi i64 [ 0, %0 ], [ %29, %26 ]
  %9 = phi i32 [ 0, %0 ], [ %27, %26 ]
  %10 = phi i32 [ 0, %0 ], [ %28, %26 ]
  %11 = getelementptr inbounds [100 x i8], [100 x i8]* %3, i64 0, i64 %8
  %12 = load i8, i8* %11, align 1, !tbaa !5
  switch i8 %12, label %13 [
    i8 0, label %30
    i8 32, label %18
  ]

13:                                               ; preds = %7
  %14 = sext i32 %9 to i64
  %15 = sext i32 %10 to i64
  %16 = getelementptr inbounds [100 x [100 x i8]], [100 x [100 x i8]]* %1, i64 0, i64 %14, i64 %15
  store i8 %12, i8* %16, align 1, !tbaa !5
  %17 = add nsw i32 %10, 1
  br label %26

18:                                               ; preds = %7
  %19 = icmp eq i32 %9, 0
  br i1 %19, label %24, label %20

20:                                               ; preds = %18
  %21 = sext i32 %9 to i64
  %22 = sext i32 %10 to i64
  %23 = getelementptr inbounds [100 x [100 x i8]], [100 x [100 x i8]]* %1, i64 0, i64 %21, i64 %22
  store i8 32, i8* %23, align 1, !tbaa !5
  br label %24

24:                                               ; preds = %20, %18
  %25 = add nsw i32 %9, 1
  br label %26

26:                                               ; preds = %13, %24
  %27 = phi i32 [ %25, %24 ], [ %9, %13 ]
  %28 = phi i32 [ 0, %24 ], [ %17, %13 ]
  %29 = add nuw i64 %8, 1
  br label %7, !llvm.loop !8

30:                                               ; preds = %7
  %31 = icmp eq i32 %9, 0
  br i1 %31, label %48, label %32

32:                                               ; preds = %30
  %33 = sext i32 %9 to i64
  %34 = getelementptr inbounds [100 x [100 x i8]], [100 x [100 x i8]]* %1, i64 0, i64 %33, i64 0
  %35 = call i32 (i8*, ...) @printf(i8* nonnull dereferenceable(1) getelementptr inbounds ([4 x i8], [4 x i8]* @.str, i64 0, i64 0), i8* nonnull %34)
  %36 = icmp sgt i32 %9, 0
  br i1 %36, label %37, label %50

37:                                               ; preds = %32
  %38 = zext i32 %9 to i64
  br label %39

39:                                               ; preds = %37, %39
  %40 = phi i64 [ %38, %37 ], [ %47, %39 ]
  %41 = phi i32 [ %9, %37 ], [ %42, %39 ]
  %42 = add nsw i32 %41, -1
  %43 = zext i32 %42 to i64
  %44 = getelementptr inbounds [100 x [100 x i8]], [100 x [100 x i8]]* %1, i64 0, i64 %43, i64 0
  %45 = call i32 (i8*, ...) @printf(i8* nonnull dereferenceable(1) getelementptr inbounds ([3 x i8], [3 x i8]* @.str.1, i64 0, i64 0), i8* nonnull %44)
  %46 = icmp sgt i64 %40, 1
  %47 = add nsw i64 %40, -1
  br i1 %46, label %39, label %50, !llvm.loop !10

48:                                               ; preds = %30
  %49 = call i32 @puts(i8* nonnull %5)
  br label %50

50:                                               ; preds = %39, %32, %48
  call void @llvm.lifetime.end.p0i8(i64 100, i8* nonnull %5) #5
  call void @llvm.lifetime.end.p0i8(i64 10000, i8* nonnull %4) #5
  ret void
}

; Function Attrs: argmemonly mustprogress nofree nosync nounwind willreturn
declare void @llvm.lifetime.start.p0i8(i64 immarg, i8* nocapture) #1

declare i32 @gets(...) local_unnamed_addr #2

; Function Attrs: nofree nounwind
declare noundef i32 @printf(i8* nocapture noundef readonly, ...) local_unnamed_addr #3

; Function Attrs: nofree nounwind
declare noundef i32 @puts(i8* nocapture noundef readonly) local_unnamed_addr #3

; Function Attrs: argmemonly mustprogress nofree nosync nounwind willreturn
declare void @llvm.lifetime.end.p0i8(i64 immarg, i8* nocapture) #1

; Function Attrs: argmemonly nofree nounwind willreturn writeonly
declare void @llvm.memset.p0i8.i64(i8* nocapture writeonly, i8, i64, i1 immarg) #4


!llvm.module.flags = !{!0, !1, !2, !3}
!llvm.ident = !{!4}

!0 = !{i32 1, !"wchar_size", i32 4}
!1 = !{i32 7, !"PIC Level", i32 2}
!2 = !{i32 7, !"PIE Level", i32 2}
!3 = !{i32 7, !"uwtable", i32 1}
!4 = !{!"clang version 13.0.0"}
!5 = !{!6, !6, i64 0}
!6 = !{!"omnipotent char", !7, i64 0}
!7 = !{!"Simple C/C++ TBAA"}
!8 = distinct !{!8, !9}
!9 = !{!"llvm.loop.mustprogress"}
!10 = distinct !{!10, !9}
